target datalayout = "e-m:e-p270:32:32-p271:32:32-p272:64:64-i64:64-i128:128-f80:128-n8:16:32:64-S128"
target triple = "x86_64-pc-linux-gnu"

%struct.pm_integer_t = type { i64, ptr, i32, i8 }
%struct.RString = type { %struct.RBasic, i64, %union.anon.4 }
%struct.RBasic = type { i64, i64 }
%union.anon.4 = type { %struct.anon.5 }
%struct.anon.5 = type { ptr, %union.anon.6 }
%union.anon.6 = type { i64 }
%struct.anon.7 = type { [1 x i8] }

@pm_integer_new.rbimpl_id = internal global i64 0, align 8
@.str = private unnamed_addr constant [5 x i8] c"to_i\00", align 1
@pm_integer_new.rbimpl_id.1 = internal global i64 0, align 8
@.str.2 = private unnamed_addr constant [3 x i8] c"-@\00", align 1

; Function Attrs: inlinehint nounwind sspstrong willreturn memory(read) uwtable
define internal i64 @RB_FL_TEST_RAW(i64 noundef %0, i64 noundef %1) #6 {
  %3 = alloca i64, align 8
  %4 = alloca i64, align 8
  store i64 %0, ptr %3, align 8, !tbaa !15
  store i64 %1, ptr %4, align 8, !tbaa !15
  %5 = load i64, ptr %3, align 8, !tbaa !15
  %6 = inttoptr i64 %5 to ptr
  %7 = getelementptr inbounds nuw %struct.RBasic, ptr %6, i32 0, i32 0
  %8 = load i64, ptr %7, align 8, !tbaa !1321
  %9 = load i64, ptr %4, align 8, !tbaa !15
  %10 = and i64 %8, %9
  ret i64 %10
}

; Function Attrs: inlinehint nounwind sspstrong willreturn memory(read) uwtable
define internal i64 @RSTRING_LEN(i64 noundef %0) #6 {
  %2 = alloca i64, align 8
  store i64 %0, ptr %2, align 8, !tbaa !15
  %3 = load i64, ptr %2, align 8, !tbaa !15
  %4 = inttoptr i64 %3 to ptr
  %5 = getelementptr inbounds nuw %struct.RString, ptr %4, i32 0, i32 1
  %6 = load i64, ptr %5, align 8, !tbaa !1318
  ret i64 %6
}

; Function Attrs: inlinehint nounwind sspstrong willreturn memory(read) uwtable
define internal zeroext i1 @RB_FL_ANY_RAW(i64 noundef %0, i64 noundef %1) #6 {
  %3 = alloca i64, align 8
  %4 = alloca i64, align 8
  store i64 %0, ptr %3, align 8, !tbaa !15
  store i64 %1, ptr %4, align 8, !tbaa !15
  %5 = load i64, ptr %3, align 8, !tbaa !15
  %6 = load i64, ptr %4, align 8, !tbaa !15
  %7 = call i64 @RB_FL_TEST_RAW(i64 noundef %5, i64 noundef %6) #17
  %8 = icmp ne i64 %7, 0
  ret i1 %8
}

; Function Attrs: inlinehint nounwind sspstrong willreturn memory(read) uwtable
define internal i64 @rb_intern_const(ptr noundef nonnull %0) #6 {
  %2 = alloca ptr, align 8
  %3 = alloca i64, align 8
  store ptr %0, ptr %2, align 8, !tbaa !27
  call void @llvm.lifetime.start.p0(i64 8, ptr %3) #13
  %4 = load ptr, ptr %2, align 8, !tbaa !27
  %5 = call i64 @strlen(ptr noundef %4) #17
  store i64 %5, ptr %3, align 8, !tbaa !15
  %6 = load ptr, ptr %2, align 8, !tbaa !27
  %7 = load i64, ptr %3, align 8, !tbaa !15
  %8 = call i64 @rb_intern2(ptr noundef %6, i64 noundef %7)
  call void @llvm.lifetime.end.p0(i64 8, ptr %3) #13
  ret i64 %8
}

; Function Attrs: inlinehint nounwind sspstrong willreturn memory(read, argmem: readwrite) uwtable
define internal void @rbimpl_rstring_getmem(ptr dead_on_unwind noalias writable sret(%struct.RString) align 8 %0, i64 noundef %1) #9 {
  %3 = alloca i64, align 8
  store i64 %1, ptr %3, align 8, !tbaa !15
  %4 = load i64, ptr %3, align 8, !tbaa !15
  %5 = call zeroext i1 @RB_FL_ANY_RAW(i64 noundef %4, i64 noundef 8192) #17
  br i1 %5, label %6, label %9

6:                                                ; preds = %2
  %7 = load i64, ptr %3, align 8, !tbaa !15
  %8 = inttoptr i64 %7 to ptr
  call void @llvm.memcpy.p0.p0.i64(ptr align 8 %0, ptr align 8 %8, i64 40, i1 false), !tbaa.struct !1317
  br label %20

9:                                                ; preds = %2
  %10 = load i64, ptr %3, align 8, !tbaa !15
  %11 = call i64 @RSTRING_LEN(i64 noundef %10) #17
  %12 = getelementptr inbounds nuw %struct.RString, ptr %0, i32 0, i32 1
  store i64 %11, ptr %12, align 8, !tbaa !1318
  %13 = load i64, ptr %3, align 8, !tbaa !15
  %14 = inttoptr i64 %13 to ptr
  %15 = getelementptr inbounds nuw %struct.RString, ptr %14, i32 0, i32 2
  %16 = getelementptr inbounds nuw %struct.anon.7, ptr %15, i32 0, i32 0
  %17 = getelementptr inbounds [1 x i8], ptr %16, i64 0, i64 0
  %18 = getelementptr inbounds nuw %struct.RString, ptr %0, i32 0, i32 2
  %19 = getelementptr inbounds nuw %struct.anon.5, ptr %18, i32 0, i32 0
  store ptr %17, ptr %19, align 8, !tbaa !49
  br label %20

20:                                               ; preds = %9, %6
  ret void
}

; Function Attrs: inlinehint nounwind sspstrong willreturn memory(none) uwtable
define internal i64 @RB_INT2FIX(i64 noundef %0) #8 {
  %2 = alloca i64, align 8
  %3 = alloca i64, align 8
  %4 = alloca i64, align 8
  %5 = alloca i64, align 8
  %6 = alloca i64, align 8
  %7 = alloca i64, align 8
  store i64 %0, ptr %2, align 8, !tbaa !15
  call void @llvm.lifetime.start.p0(i64 8, ptr %3) #13
  %8 = load i64, ptr %2, align 8, !tbaa !15
  store i64 %8, ptr %3, align 8, !tbaa !15
  call void @llvm.lifetime.start.p0(i64 8, ptr %4) #13
  %9 = load i64, ptr %3, align 8, !tbaa !15
  %10 = shl i64 %9, 1
  %11 = add i64 %10, 1
  store i64 %11, ptr %4, align 8, !tbaa !15
  call void @llvm.lifetime.start.p0(i64 8, ptr %5) #13
  %12 = load i64, ptr %4, align 8, !tbaa !15
  store i64 %12, ptr %5, align 8, !tbaa !15
  call void @llvm.lifetime.start.p0(i64 8, ptr %6) #13
  %13 = load i64, ptr %5, align 8, !tbaa !15
  store i64 %13, ptr %6, align 8, !tbaa !15
  call void @llvm.lifetime.start.p0(i64 8, ptr %7) #13
  %14 = load i64, ptr %6, align 8, !tbaa !15
  store i64 %14, ptr %7, align 8, !tbaa !15
  %15 = load i64, ptr %7, align 8, !tbaa !15
  call void @llvm.lifetime.end.p0(i64 8, ptr %7) #13
  call void @llvm.lifetime.end.p0(i64 8, ptr %6) #13
  call void @llvm.lifetime.end.p0(i64 8, ptr %5) #13
  call void @llvm.lifetime.end.p0(i64 8, ptr %4) #13
  call void @llvm.lifetime.end.p0(i64 8, ptr %3) #13
  ret i64 %15
}

; Function Attrs: inlinehint nounwind sspstrong memory(argmem: readwrite, inaccessiblemem: readwrite) uwtable
define internal i64 @rbimpl_intern_const(ptr noundef nonnull %0, ptr noundef nonnull %1) #5 {
  %3 = alloca ptr, align 8
  %4 = alloca ptr, align 8
  store ptr %0, ptr %3, align 8, !tbaa !54
  store ptr %1, ptr %4, align 8, !tbaa !27
  br label %5

5:                                                ; preds = %10, %2
  %6 = load ptr, ptr %3, align 8, !tbaa !54
  %7 = load i64, ptr %6, align 8, !tbaa !15
  %8 = icmp ne i64 %7, 0
  %9 = xor i1 %8, true
  br i1 %9, label %10, label %14

10:                                               ; preds = %5
  %11 = load ptr, ptr %4, align 8, !tbaa !27
  %12 = call i64 @rb_intern_const(ptr noundef %11) #17
  %13 = load ptr, ptr %3, align 8, !tbaa !54
  store i64 %12, ptr %13, align 8, !tbaa !15
  br label %5, !llvm.loop !55

14:                                               ; preds = %5
  %15 = load ptr, ptr %3, align 8, !tbaa !54
  %16 = load i64, ptr %15, align 8, !tbaa !15
  ret i64 %16
}

; Function Attrs: inlinehint nounwind sspstrong uwtable
define internal ptr @RSTRING_PTR(i64 noundef %0) #4 {
  %2 = alloca i64, align 8
  %3 = alloca ptr, align 8
  %4 = alloca %struct.RString, align 8
  store i64 %0, ptr %2, align 8, !tbaa !15
  call void @llvm.lifetime.start.p0(i64 8, ptr %3) #13
  %5 = load i64, ptr %2, align 8, !tbaa !15
  call void @rbimpl_rstring_getmem(ptr dead_on_unwind writable sret(%struct.RString) align 8 %4, i64 noundef %5) #16
  %6 = getelementptr inbounds nuw %struct.RString, ptr %4, i32 0, i32 2
  %7 = getelementptr inbounds nuw %struct.anon.5, ptr %6, i32 0, i32 0
  %8 = load ptr, ptr %7, align 8, !tbaa !49
  store ptr %8, ptr %3, align 8, !tbaa !27
  %9 = load ptr, ptr %3, align 8, !tbaa !27
  call void @llvm.lifetime.end.p0(i64 8, ptr %3) #13
  ret ptr %9
}

; Function Attrs: inlinehint nounwind sspstrong uwtable
define internal i64 @rb_uint2num_inline(i32 noundef %0) #4 {
  %2 = alloca i64, align 8
  %3 = alloca i32, align 4
  store i32 %0, ptr %3, align 4, !tbaa !48
  %4 = load i32, ptr %3, align 4, !tbaa !48
  %5 = zext i32 %4 to i64
  %6 = icmp slt i64 %5, 4611686018427387904
  br i1 %6, label %7, label %11

7:                                                ; preds = %1
  %8 = load i32, ptr %3, align 4, !tbaa !48
  %9 = zext i32 %8 to i64
  %10 = call i64 @RB_INT2FIX(i64 noundef %9) #14
  store i64 %10, ptr %2, align 8
  br label %15

11:                                               ; preds = %1
  %12 = load i32, ptr %3, align 4, !tbaa !48
  %13 = zext i32 %12 to i64
  %14 = call i64 @rb_uint2big(i64 noundef %13)
  store i64 %14, ptr %2, align 8
  br label %15

15:                                               ; preds = %11, %7
  %16 = load i64, ptr %2, align 8
  ret i64 %16
}

; Function Attrs: nounwind sspstrong uwtable
define hidden i64 @pm_integer_new(ptr noundef %0) #0 {
  %2 = alloca ptr, align 8
  %3 = alloca i64, align 8
  %4 = alloca i64, align 8
  %5 = alloca ptr, align 8
  %6 = alloca i64, align 8
  %7 = alloca i64, align 8
  %8 = alloca i32, align 4
  %9 = alloca i32, align 4
  %10 = alloca i32, align 4
  %11 = alloca i32, align 4
  %12 = alloca i64, align 8
  %13 = alloca i64, align 8
  store ptr %0, ptr %2, align 8, !tbaa !12
  call void @llvm.lifetime.start.p0(i64 8, ptr %3) #13
  %14 = load ptr, ptr %2, align 8, !tbaa !12
  %15 = getelementptr inbounds nuw %struct.pm_integer_t, ptr %14, i32 0, i32 1
  %16 = load ptr, ptr %15, align 8, !tbaa !43
  %17 = icmp eq ptr %16, null
  br i1 %17, label %18, label %23

18:                                               ; preds = %1
  %19 = load ptr, ptr %2, align 8, !tbaa !12
  %20 = getelementptr inbounds nuw %struct.pm_integer_t, ptr %19, i32 0, i32 2
  %21 = load i32, ptr %20, align 8, !tbaa !46
  %22 = call i64 @rb_uint2num_inline(i32 noundef %21)
  store i64 %22, ptr %3, align 8, !tbaa !15
  br label %94

23:                                               ; preds = %1
  call void @llvm.lifetime.start.p0(i64 8, ptr %4) #13
  %24 = load ptr, ptr %2, align 8, !tbaa !12
  %25 = getelementptr inbounds nuw %struct.pm_integer_t, ptr %24, i32 0, i32 0
  %26 = load i64, ptr %25, align 8, !tbaa !47
  %27 = mul i64 %26, 8
  %28 = call i1 @llvm.is.constant.i64(i64 %27)
  %29 = select i1 %28, ptr @rb_str_new_static, ptr @rb_str_new
  %30 = load ptr, ptr %2, align 8, !tbaa !12
  %31 = getelementptr inbounds nuw %struct.pm_integer_t, ptr %30, i32 0, i32 0
  %32 = load i64, ptr %31, align 8, !tbaa !47
  %33 = mul i64 %32, 8
  %34 = call i64 %29(ptr noundef null, i64 noundef %33)
  store i64 %34, ptr %4, align 8, !tbaa !15
  call void @llvm.lifetime.start.p0(i64 8, ptr %5) #13
  %35 = load i64, ptr %4, align 8, !tbaa !15
  %36 = call ptr @RSTRING_PTR(i64 noundef %35)
  store ptr %36, ptr %5, align 8, !tbaa !27
  call void @llvm.lifetime.start.p0(i64 8, ptr %6) #13
  %37 = load ptr, ptr %2, align 8, !tbaa !12
  %38 = getelementptr inbounds nuw %struct.pm_integer_t, ptr %37, i32 0, i32 0
  %39 = load i64, ptr %38, align 8, !tbaa !47
  %40 = mul i64 %39, 8
  store i64 %40, ptr %6, align 8, !tbaa !15
  call void @llvm.lifetime.start.p0(i64 8, ptr %7) #13
  store i64 0, ptr %7, align 8, !tbaa !15
  br label %41

41:                                               ; preds = %85, %23
  %42 = load i64, ptr %7, align 8, !tbaa !15
  %43 = load ptr, ptr %2, align 8, !tbaa !12
  %44 = getelementptr inbounds nuw %struct.pm_integer_t, ptr %43, i32 0, i32 0
  %45 = load i64, ptr %44, align 8, !tbaa !47
  %46 = icmp ult i64 %42, %45
  br i1 %46, label %48, label %47

47:                                               ; preds = %41
  store i32 2, ptr %8, align 4
  call void @llvm.lifetime.end.p0(i64 8, ptr %7) #13
  br label %88

48:                                               ; preds = %41
  call void @llvm.lifetime.start.p0(i64 4, ptr %9) #13
  %49 = load ptr, ptr %2, align 8, !tbaa !12
  %50 = getelementptr inbounds nuw %struct.pm_integer_t, ptr %49, i32 0, i32 1
  %51 = load ptr, ptr %50, align 8, !tbaa !43
  %52 = load i64, ptr %7, align 8, !tbaa !15
  %53 = getelementptr i32, ptr %51, i64 %52
  %54 = load i32, ptr %53, align 4, !tbaa !48
  store i32 %54, ptr %9, align 4, !tbaa !48
  call void @llvm.lifetime.start.p0(i64 4, ptr %10) #13
  store i32 0, ptr %10, align 4, !tbaa !48
  br label %55

55:                                               ; preds = %81, %48
  %56 = load i32, ptr %10, align 4, !tbaa !48
  %57 = icmp slt i32 %56, 8
  br i1 %57, label %59, label %58

58:                                               ; preds = %55
  store i32 5, ptr %8, align 4
  call void @llvm.lifetime.end.p0(i64 4, ptr %10) #13
  br label %84

59:                                               ; preds = %55
  call void @llvm.lifetime.start.p0(i64 4, ptr %11) #13
  %60 = load i32, ptr %9, align 4, !tbaa !48
  %61 = load i32, ptr %10, align 4, !tbaa !48
  %62 = mul i32 4, %61
  %63 = lshr i32 %60, %62
  %64 = and i32 %63, 15
  store i32 %64, ptr %11, align 4, !tbaa !48
  %65 = load i32, ptr %11, align 4, !tbaa !48
  %66 = icmp slt i32 %65, 10
  br i1 %66, label %67, label %70

67:                                               ; preds = %59
  %68 = load i32, ptr %11, align 4, !tbaa !48
  %69 = add i32 %68, 48
  br label %74

70:                                               ; preds = %59
  %71 = load i32, ptr %11, align 4, !tbaa !48
  %72 = sub i32 %71, 10
  %73 = add i32 %72, 97
  br label %74

74:                                               ; preds = %70, %67
  %75 = phi i32 [ %69, %67 ], [ %73, %70 ]
  %76 = trunc i32 %75 to i8
  %77 = load ptr, ptr %5, align 8, !tbaa !27
  %78 = load i64, ptr %6, align 8, !tbaa !15
  %79 = add i64 %78, -1
  store i64 %79, ptr %6, align 8, !tbaa !15
  %80 = getelementptr i8, ptr %77, i64 %79
  store i8 %76, ptr %80, align 1, !tbaa !49
  call void @llvm.lifetime.end.p0(i64 4, ptr %11) #13
  br label %81

81:                                               ; preds = %74
  %82 = load i32, ptr %10, align 4, !tbaa !48
  %83 = add i32 %82, 1
  store i32 %83, ptr %10, align 4, !tbaa !48
  br label %55, !llvm.loop !50

84:                                               ; preds = %58
  call void @llvm.lifetime.end.p0(i64 4, ptr %9) #13
  br label %85

85:                                               ; preds = %84
  %86 = load i64, ptr %7, align 8, !tbaa !15
  %87 = add i64 %86, 1
  store i64 %87, ptr %7, align 8, !tbaa !15
  br label %41, !llvm.loop !52

88:                                               ; preds = %47
  %89 = load i64, ptr %4, align 8, !tbaa !15
  %90 = call i64 @rbimpl_intern_const(ptr noundef @pm_integer_new.rbimpl_id, ptr noundef @.str) #15
  store i64 %90, ptr %12, align 8, !tbaa !15
  %91 = load i64, ptr %12, align 8, !tbaa !15
  %92 = call i64 @rb_uint2num_inline(i32 noundef 16)
  %93 = call i64 (i64, i64, i32, ...) @rb_funcall(i64 noundef %89, i64 noundef %91, i32 noundef 1, i64 noundef %92)
  store i64 %93, ptr %3, align 8, !tbaa !15
  call void @llvm.lifetime.end.p0(i64 8, ptr %6) #13
  call void @llvm.lifetime.end.p0(i64 8, ptr %5) #13
  call void @llvm.lifetime.end.p0(i64 8, ptr %4) #13
  br label %94

94:                                               ; preds = %88, %18
  %95 = load ptr, ptr %2, align 8, !tbaa !12
  %96 = getelementptr inbounds nuw %struct.pm_integer_t, ptr %95, i32 0, i32 3
  %97 = load i8, ptr %96, align 4, !tbaa !53, !range !25, !noundef !26
  %98 = trunc i8 %97 to i1
  br i1 %98, label %99, label %104

99:                                               ; preds = %94
  %100 = load i64, ptr %3, align 8, !tbaa !15
  %101 = call i64 @rbimpl_intern_const(ptr noundef @pm_integer_new.rbimpl_id.1, ptr noundef @.str.2) #15
  store i64 %101, ptr %13, align 8, !tbaa !15
  %102 = load i64, ptr %13, align 8, !tbaa !15
  %103 = call i64 (i64, i64, i32, ...) @rb_funcall(i64 noundef %100, i64 noundef %102, i32 noundef 0)
  store i64 %103, ptr %3, align 8, !tbaa !15
  br label %104

104:                                              ; preds = %99, %94
  %105 = load i64, ptr %3, align 8, !tbaa !15
  store i32 1, ptr %8, align 4
  call void @llvm.lifetime.end.p0(i64 8, ptr %3) #13
  ret i64 %105
}