; Function Attrs: nounwind sspstrong uwtable
define hidden i64 @pm_integer_new(ptr noundef readonly captures(none) %0) local_unnamed_addr #0 {
  %2 = getelementptr inbounds nuw i8, ptr %0, i64 8
  %3 = load ptr, ptr %2, align 8, !tbaa !34
  %4 = icmp eq ptr %3, null
  br i1 %4, label %5, label %11

5:                                                ; preds = %1
  %6 = getelementptr inbounds nuw i8, ptr %0, i64 16
  %7 = load i32, ptr %6, align 8, !tbaa !37
  %8 = zext i32 %7 to i64
  %9 = shl nuw nsw i64 %8, 1
  %10 = or disjoint i64 %9, 1
  br label %43

11:                                               ; preds = %1
  %12 = load i64, ptr %0, align 8, !tbaa !38
  %13 = shl i64 %12, 3
  %14 = tail call i64 @rb_str_new(ptr noundef null, i64 noundef %13) #5, !callees !39
  %15 = inttoptr i64 %14 to ptr
  %16 = load i64, ptr %15, align 8, !tbaa !40, !noalias !42
  %17 = and i64 %16, 8192
  %.not.i.i = icmp eq i64 %17, 0
  %18 = getelementptr inbounds nuw i8, ptr %15, i64 24
  br i1 %.not.i.i, label %RSTRING_PTR.exit, label %19

19:                                               ; preds = %11
  %.sroa.2.0.copyload.i = load ptr, ptr %18, align 8
  br label %RSTRING_PTR.exit

RSTRING_PTR.exit:                                 ; preds = %11, %19
  %.sroa.2.0.i = phi ptr [ %.sroa.2.0.copyload.i, %19 ], [ %18, %11 ]
  %20 = load i64, ptr %0, align 8, !tbaa !38
  %.not = icmp eq i64 %20, 0
  br i1 %.not, label %._crit_edge, label %.lr.ph.preheader

.lr.ph.preheader:                                 ; preds = %RSTRING_PTR.exit
  %21 = shl i64 %20, 3
  br label %.lr.ph

._crit_edge:                                      ; preds = %27, %RSTRING_PTR.exit
  %.pr.i = load i64, ptr @pm_integer_new.rbimpl_id, align 8, !tbaa !16
  %.not4.i = icmp eq i64 %.pr.i, 0
  br i1 %.not4.i, label %.lr.ph.i, label %rbimpl_intern_const.exit

.lr.ph.i:                                         ; preds = %._crit_edge, %.lr.ph.i
  %22 = tail call i64 @rb_intern2(ptr noundef nonnull @.str, i64 noundef 4) #5
  store i64 %22, ptr @pm_integer_new.rbimpl_id, align 8, !tbaa !16
  %.not.i = icmp eq i64 %22, 0
  br i1 %.not.i, label %.lr.ph.i, label %rbimpl_intern_const.exit, !llvm.loop !45

rbimpl_intern_const.exit:                         ; preds = %.lr.ph.i, %._crit_edge
  %.lcssa.i = phi i64 [ %.pr.i, %._crit_edge ], [ %22, %.lr.ph.i ]
  %23 = tail call i64 (i64, i64, i32, ...) @rb_funcall(i64 noundef %14, i64 noundef %.lcssa.i, i32 noundef 1, i64 noundef 33) #5
  br label %43

.lr.ph:                                           ; preds = %.lr.ph.preheader, %27
  %.02541 = phi i64 [ %40, %27 ], [ %21, %.lr.ph.preheader ]
  %.02740 = phi i64 [ %28, %27 ], [ 0, %.lr.ph.preheader ]
  %24 = load ptr, ptr %2, align 8, !tbaa !34
  %25 = getelementptr i32, ptr %24, i64 %.02740
  %26 = load i32, ptr %25, align 4, !tbaa !47
  br label %31

27:                                               ; preds = %31
  %28 = add nuw i64 %.02740, 1
  %29 = load i64, ptr %0, align 8, !tbaa !38
  %30 = icmp ult i64 %28, %29
  br i1 %30, label %.lr.ph, label %._crit_edge, !llvm.loop !48

31:                                               ; preds = %.lr.ph, %31
  %.12639 = phi i64 [ %.02541, %.lr.ph ], [ %40, %31 ]
  %.02838 = phi i32 [ 0, %.lr.ph ], [ %42, %31 ]
  %32 = shl nuw nsw i32 %.02838, 2
  %33 = lshr i32 %26, %32
  %34 = and i32 %33, 15
  %35 = icmp samesign ult i32 %34, 10
  %36 = or disjoint i32 %34, 48
  %37 = add nuw nsw i32 %34, 87
  %38 = select i1 %35, i32 %36, i32 %37
  %39 = trunc nuw nsw i32 %38 to i8
  %40 = add i64 %.12639, -1
  %41 = getelementptr i8, ptr %.sroa.2.0.i, i64 %40
  store i8 %39, ptr %41, align 1, !tbaa !49
  %42 = add nuw nsw i32 %.02838, 1
  %exitcond.not = icmp eq i32 %42, 8
  br i1 %exitcond.not, label %27, label %31, !llvm.loop !50

43:                                               ; preds = %rbimpl_intern_const.exit, %5
  %.0 = phi i64 [ %10, %5 ], [ %23, %rbimpl_intern_const.exit ]
  %44 = getelementptr inbounds nuw i8, ptr %0, i64 20
  %45 = load i8, ptr %44, align 4, !tbaa !51, !range !52, !noundef !53
  %46 = trunc nuw i8 %45 to i1
  br i1 %46, label %47, label %50

47:                                               ; preds = %43
  %.pr.i31 = load i64, ptr @pm_integer_new.rbimpl_id.1, align 8, !tbaa !16
  %.not4.i32 = icmp eq i64 %.pr.i31, 0
  br i1 %.not4.i32, label %.lr.ph.i34, label %rbimpl_intern_const.exit36

.lr.ph.i34:                                       ; preds = %47, %.lr.ph.i34
  %48 = tail call i64 @rb_intern2(ptr noundef nonnull @.str.2, i64 noundef 2) #5
  store i64 %48, ptr @pm_integer_new.rbimpl_id.1, align 8, !tbaa !16
  %.not.i35 = icmp eq i64 %48, 0
  br i1 %.not.i35, label %.lr.ph.i34, label %rbimpl_intern_const.exit36, !llvm.loop !45

rbimpl_intern_const.exit36:                       ; preds = %.lr.ph.i34, %47
  %.lcssa.i33 = phi i64 [ %.pr.i31, %47 ], [ %48, %.lr.ph.i34 ]
  %49 = tail call i64 (i64, i64, i32, ...) @rb_funcall(i64 noundef %.0, i64 noundef %.lcssa.i33, i32 noundef 0) #5
  br label %50

50:                                               ; preds = %rbimpl_intern_const.exit36, %43
  %.1 = phi i64 [ %49, %rbimpl_intern_const.exit36 ], [ %.0, %43 ]
  ret i64 %.1
}